Certificate:
    Data:
        Version: 3 (0x2)
        Serial Number:
            ec:c1:04:38:45:ad:93:a6:e3:d1:1e:19:36:d2:b7:a9
    Signature Algorithm: sha256WithRSAEncryption
        Issuer: CN=DemoRootCA, O=DocuSign, C=FR
        Validity
            Not Before: May 17 12:37:04 2019 GMT
            Not After : May 14 12:37:04 2029 GMT
        Subject: C=FR, O=DocuSign, CN=DemoIntermediateCA
        Subject Public Key Info:
            Public Key Algorithm: rsaEncryption
                Public-Key: (2048 bit)
                Modulus:
                    00:e8:ae:68:9c:fe:b7:dc:58:b5:1a:35:25:22:fa:
                    d0:d2:6a:10:38:52:3b:be:36:d9:cf:6b:8c:18:83:
                    84:66:52:a4:60:b8:8a:4f:15:cc:4e:e4:12:25:18:
                    2c:10:96:34:ba:c6:6d:2f:58:10:30:e3:f6:7c:91:
                    51:61:28:74:44:cc:97:f3:ef:d4:4c:78:36:93:ad:
                    a7:6e:19:f9:54:32:7f:65:14:14:a4:06:71:7c:64:
                    8c:cc:91:0d:4b:9f:06:ff:1a:cd:00:ff:09:ea:7b:
                    2d:a5:74:09:4a:c0:cb:1c:ed:54:63:b7:f7:6b:64:
                    76:a3:93:d7:1f:13:80:80:31:39:ec:26:e7:43:0e:
                    41:de:09:e2:ba:89:13:cb:19:4e:54:52:bb:78:d4:
                    44:2b:0e:2e:4a:b8:69:38:96:a4:d1:ff:d9:dc:84:
                    6d:bc:35:f8:fe:e4:70:f8:02:50:1f:f8:08:e4:33:
                    19:ba:34:8e:87:e5:d8:d5:aa:27:2d:72:8c:07:1c:
                    ca:e3:3a:33:a6:d3:52:80:1e:33:d5:98:29:7f:17:
                    83:8c:62:95:7a:38:21:77:13:28:bd:f9:29:98:cb:
                    a9:58:61:d5:51:68:e8:22:61:86:ec:73:01:34:51:
                    55:b5:0e:b3:66:9b:92:e5:cf:34:47:ae:44:b2:ca:
                    2e:27
                Exponent: 65537 (0x10001)
        X509v3 extensions:
            X509v3 Basic Constraints: critical
                CA:TRUE
            X509v3 Key Usage: critical
                Certificate Sign, CRL Sign
            X509v3 Subject Key Identifier: 
                B8:40:CE:DB:1F:91:BB:EA:B0:26:1F:37:52:F1:0B:09:97:EF:54:54
            X509v3 Authority Key Identifier: 
                keyid:F0:D3:AC:BE:40:5D:E2:E7:71:96:67:87:F0:0A:D5:90:4F:1E:53:25

            X509v3 CRL Distribution Points: 

                Full Name:
                  URI:http://my.pki.website/path/to/root.crl

            X509v3 Certificate Policies: 
                Policy: X509v3 Any Policy

    Signature Algorithm: sha256WithRSAEncryption
         23:55:11:be:80:78:fa:e1:8b:cc:8f:90:be:fb:06:47:36:3d:
         10:0b:87:51:5d:a5:34:45:19:6c:cd:18:bf:c3:42:ba:e4:4b:
         82:4d:27:3a:63:ab:71:0e:93:dc:5c:d5:d1:1d:86:af:74:01:
         cd:76:2e:08:44:29:02:c5:5b:23:78:46:ea:e6:8e:3f:3a:f0:
         cc:4b:81:eb:0c:94:b4:fd:1d:d7:ab:d5:2e:5a:13:81:38:82:
         7f:bb:ba:64:a8:17:2f:e1:2d:e3:28:32:5c:46:fc:6e:48:7b:
         ff:ad:dd:8a:9c:e2:4b:f0:f4:83:71:51:63:50:bf:bf:0f:0c:
         f8:43:ff:5f:97:66:85:3c:bd:88:8c:38:00:4f:87:39:10:d6:
         b0:5d:11:65:13:45:05:60:a3:de:ee:34:9d:ec:af:54:4e:92:
         94:63:85:4e:1d:8e:b1:e6:f6:8e:95:44:b1:d0:cb:05:2f:dd:
         65:aa:ea:c8:9f:38:32:6d:b2:22:6b:b7:b0:47:33:3c:b8:e3:
         3d:ff:95:db:a7:b7:92:76:4c:87:c9:e5:ec:8c:25:1f:06:84:
         5c:e8:01:1b:39:07:59:7f:50:a1:3f:00:21:53:34:b6:97:f4:
         ad:aa:e8:56:a2:0f:f1:b2:d8:99:f2:bd:48:30:a7:13:09:b0:
         c5:ee:63:b6
-----BEGIN CERTIFICATE-----
MIIDrjCCApagAwIBAgIRAOzBBDhFrZOm49EeGTbSt6kwDQYJKoZIhvcNAQELBQAw
NTETMBEGA1UEAwwKRGVtb1Jvb3RDQTERMA8GA1UECgwIRG9jdVNpZ24xCzAJBgNV
BAYTAkZSMB4XDTE5MDUxNzEyMzcwNFoXDTI5MDUxNDEyMzcwNFowPTELMAkGA1UE
BhMCRlIxETAPBgNVBAoMCERvY3VTaWduMRswGQYDVQQDDBJEZW1vSW50ZXJtZWRp
YXRlQ0EwggEiMA0GCSqGSIb3DQEBAQUAA4IBDwAwggEKAoIBAQDormic/rfcWLUa
NSUi+tDSahA4Uju+NtnPa4wYg4RmUqRguIpPFcxO5BIlGCwQljS6xm0vWBAw4/Z8
kVFhKHREzJfz79RMeDaTraduGflUMn9lFBSkBnF8ZIzMkQ1Lnwb/Gs0A/wnqey2l
dAlKwMsc7VRjt/drZHajk9cfE4CAMTnsJudDDkHeCeK6iRPLGU5UUrt41EQrDi5K
uGk4lqTR/9nchG28Nfj+5HD4AlAf+AjkMxm6NI6H5djVqictcowHHMrjOjOm01KA
HjPVmCl/F4OMYpV6OCF3Eyi9+SmYy6lYYdVRaOgiYYbscwE0UVW1DrNmm5LlzzRH
rkSyyi4nAgMBAAGjgbAwga0wDwYDVR0TAQH/BAUwAwEB/zAOBgNVHQ8BAf8EBAMC
AQYwHQYDVR0OBBYEFLhAztsfkbvqsCYfN1LxCwmX71RUMB8GA1UdIwQYMBaAFPDT
rL5AXeLncZZnh/AK1ZBPHlMlMDcGA1UdHwQwMC4wLKAqoCiGJmh0dHA6Ly9teS5w
a2kud2Vic2l0ZS9wYXRoL3RvL3Jvb3QuY3JsMBEGA1UdIAQKMAgwBgYEVR0gADAN
BgkqhkiG9w0BAQsFAAOCAQEAI1URvoB4+uGLzI+QvvsGRzY9EAuHUV2lNEUZbM0Y
v8NCuuRLgk0nOmOrcQ6T3FzV0R2Gr3QBzXYuCEQpAsVbI3hG6uaOPzrwzEuB6wyU
tP0d16vVLloTgTiCf7u6ZKgXL+Et4ygyXEb8bkh7/63dipziS/D0g3FRY1C/vw8M
+EP/X5dmhTy9iIw4AE+HORDWsF0RZRNFBWCj3u40neyvVE6SlGOFTh2Oseb2jpVE
sdDLBS/dZarqyJ84Mm2yImu3sEczPLjjPf+V26e3knZMh8nl7IwlHwaEXOgBGzkH
WX9QoT8AIVM0tpf0raroVqIP8bLYmfK9SDCnEwmwxe5jtg==
-----END CERTIFICATE-----
